; Function Attrs: mustprogress nounwind uwtable
define dso_local noundef i64 @_ZNK4llvm14MCLOHDirective11getEmitSizeERKNS_11MCAssemblerERKNS_16MachObjectWriterE(ptr noundef nonnull align 8 dereferenceable(48) %0, ptr noundef nonnull align 1 %1, ptr noundef nonnull align 8 dereferenceable(2032) %2) local_unnamed_addr #0 align 2 {
  %4 = alloca %class.raw_counting_ostream, align 8
  %5 = getelementptr inbounds nuw i8, ptr %4, i64 8
  store i32 0, ptr %5, align 8
  %6 = getelementptr inbounds nuw i8, ptr %4, i64 40
  store i8 0, ptr %6, align 8
  %7 = getelementptr inbounds nuw i8, ptr %4, i64 44
  store i32 1, ptr %7, align 4
  %8 = getelementptr inbounds nuw i8, ptr %4, i64 16
  call void @llvm.memset.p0.i64(ptr noundef nonnull align 8 dereferenceable(24) %8, i8 0, i64 24, i1 false)
  store ptr getelementptr inbounds inrange(-16, 104) (i8, ptr @_ZTVZNK4llvm14MCLOHDirective11getEmitSizeERKNS_11MCAssemblerERKNS_16MachObjectWriterEE20raw_counting_ostream, i64 16), ptr %4, align 8
  %9 = getelementptr inbounds nuw i8, ptr %4, i64 48
  store i64 0, ptr %9, align 8
  call void @_ZNK4llvm14MCLOHDirective9emit_implERKNS_11MCAssemblerERNS_11raw_ostreamERKNS_16MachObjectWriterE(ptr noundef nonnull align 8 dereferenceable(48) %0, ptr noundef nonnull align 1 %1, ptr noundef nonnull align 8 dereferenceable(48) %4, ptr noundef nonnull align 8 dereferenceable(2032) %2)
  %10 = load ptr, ptr %4, align 8
  %11 = getelementptr inbounds i8, ptr %10, i64 80
  %12 = load ptr, ptr %11, align 8
  %13 = call noundef i64 %12(ptr noundef nonnull align 8 dereferenceable(48) %4) #7
  %14 = getelementptr inbounds nuw i8, ptr %4, i64 32
  %15 = load ptr, ptr %14, align 8
  %16 = load ptr, ptr %8, align 8
  store ptr getelementptr inbounds inrange(-16, 104) (i8, ptr @_ZTVZNK4llvm14MCLOHDirective11getEmitSizeERKNS_11MCAssemblerERKNS_16MachObjectWriterEE20raw_counting_ostream, i64 16), ptr %4, align 8
  %.not.i.i = icmp eq ptr %15, %16
  br i1 %.not.i.i, label %_ZZNK4llvm14MCLOHDirective11getEmitSizeERKNS_11MCAssemblerERKNS_16MachObjectWriterEEN20raw_counting_ostreamD2Ev.exit, label %17

17:                                               ; preds = %3
  call void @_ZN4llvm11raw_ostream14flush_nonemptyEv(ptr noundef nonnull align 8 dereferenceable(48) %4) #7
  br label %_ZZNK4llvm14MCLOHDirective11getEmitSizeERKNS_11MCAssemblerERKNS_16MachObjectWriterEEN20raw_counting_ostreamD2Ev.exit

_ZZNK4llvm14MCLOHDirective11getEmitSizeERKNS_11MCAssemblerERKNS_16MachObjectWriterEEN20raw_counting_ostreamD2Ev.exit: ; preds = %3, %17
  %18 = ptrtoint ptr %15 to i64
  %19 = add i64 %13, %18
  %20 = ptrtoint ptr %16 to i64
  %21 = sub i64 %19, %20
  call void @_ZN4llvm11raw_ostreamD2Ev(ptr noundef nonnull align 8 dereferenceable(48) %4) #7
  ret i64 %21
}